; Function Attrs: nofree norecurse nosync nounwind memory(argmem: read) uwtable
define ptr @lv_observer_get_target_obj(ptr noundef readonly captures(address_is_null) %0) local_unnamed_addr #7 {
  %.not.i = icmp eq ptr %0, null
  br i1 %.not.i, label %.preheader.i, label %lv_observer_get_target.exit

.preheader.i:                                     ; preds = %1, %.preheader.i
  br label %.preheader.i

lv_observer_get_target.exit:                      ; preds = %1
  %2 = getelementptr inbounds nuw i8, ptr %0, i64 16
  %3 = load ptr, ptr %2, align 8, !tbaa !14
  ret ptr %3
}